; ModuleID = '24/2173.c'
source_filename = "24/2173.c"
target datalayout = "e-m:e-p270:32:32-p271:32:32-p272:64:64-i64:64-f80:128-n8:16:32:64-S128"
target triple = "x86_64-pc-linux-gnu"

@.str = private unnamed_addr constant [5 x i8] c"%s%c\00", align 1
@.str.1 = private unnamed_addr constant [6 x i8] c"%s\0A%s\00", align 1

; Function Attrs: noinline nounwind uwtable
define dso_local void @main() #0 {
  %1 = alloca i32, align 4
  %2 = alloca i32, align 4
  %3 = alloca i32, align 4
  %4 = alloca i32, align 4
  %5 = alloca i32, align 4
  %6 = alloca i32, align 4
  %7 = alloca [200 x [100 x i8]], align 16
  %8 = alloca i8, align 1
  store i32 0, i32* %3, align 4
  br label %9

9:                                                ; preds = %0, %26
  %10 = load i32, i32* %3, align 4
  %11 = sext i32 %10 to i64
  %12 = getelementptr inbounds [200 x [100 x i8]], [200 x [100 x i8]]* %7, i64 0, i64 %11
  %13 = getelementptr inbounds [100 x i8], [100 x i8]* %12, i64 0, i64 0
  %14 = call i32 (i8*, ...) @__isoc99_scanf(i8* getelementptr inbounds ([5 x i8], [5 x i8]* @.str, i64 0, i64 0), i8* %13, i8* %8)
  %15 = load i8, i8* %8, align 1
  %16 = sext i8 %15 to i32
  %17 = icmp ne i32 %16, 32
  br i1 %17, label %18, label %23

18:                                               ; preds = %9
  %19 = load i8, i8* %8, align 1
  %20 = sext i8 %19 to i32
  %21 = icmp ne i32 %20, 44
  br i1 %21, label %22, label %23

22:                                               ; preds = %18
  br label %27

23:                                               ; preds = %18, %9
  %24 = load i32, i32* %3, align 4
  %25 = add nsw i32 %24, 1
  store i32 %25, i32* %3, align 4
  br label %26

26:                                               ; preds = %23
  br label %9

27:                                               ; preds = %22
  %28 = getelementptr inbounds [200 x [100 x i8]], [200 x [100 x i8]]* %7, i64 0, i64 0
  %29 = getelementptr inbounds [100 x i8], [100 x i8]* %28, i64 0, i64 0
  %30 = call i64 @strlen(i8* %29) #3
  %31 = trunc i64 %30 to i32
  store i32 %31, i32* %1, align 4
  store i32 0, i32* %5, align 4
  %32 = getelementptr inbounds [200 x [100 x i8]], [200 x [100 x i8]]* %7, i64 0, i64 0
  %33 = getelementptr inbounds [100 x i8], [100 x i8]* %32, i64 0, i64 0
  %34 = call i64 @strlen(i8* %33) #3
  %35 = trunc i64 %34 to i32
  store i32 %35, i32* %2, align 4
  store i32 0, i32* %6, align 4
  store i32 1, i32* %4, align 4
  br label %36

36:                                               ; preds = %75, %27
  %37 = load i32, i32* %4, align 4
  %38 = load i32, i32* %3, align 4
  %39 = icmp sle i32 %37, %38
  br i1 %39, label %40, label %78

40:                                               ; preds = %36
  %41 = load i32, i32* %4, align 4
  %42 = sext i32 %41 to i64
  %43 = getelementptr inbounds [200 x [100 x i8]], [200 x [100 x i8]]* %7, i64 0, i64 %42
  %44 = getelementptr inbounds [100 x i8], [100 x i8]* %43, i64 0, i64 0
  %45 = call i64 @strlen(i8* %44) #3
  %46 = load i32, i32* %1, align 4
  %47 = sext i32 %46 to i64
  %48 = icmp ugt i64 %45, %47
  br i1 %48, label %49, label %57

49:                                               ; preds = %40
  %50 = load i32, i32* %4, align 4
  %51 = sext i32 %50 to i64
  %52 = getelementptr inbounds [200 x [100 x i8]], [200 x [100 x i8]]* %7, i64 0, i64 %51
  %53 = getelementptr inbounds [100 x i8], [100 x i8]* %52, i64 0, i64 0
  %54 = call i64 @strlen(i8* %53) #3
  %55 = trunc i64 %54 to i32
  store i32 %55, i32* %1, align 4
  %56 = load i32, i32* %4, align 4
  store i32 %56, i32* %5, align 4
  br label %57

57:                                               ; preds = %49, %40
  %58 = load i32, i32* %4, align 4
  %59 = sext i32 %58 to i64
  %60 = getelementptr inbounds [200 x [100 x i8]], [200 x [100 x i8]]* %7, i64 0, i64 %59
  %61 = getelementptr inbounds [100 x i8], [100 x i8]* %60, i64 0, i64 0
  %62 = call i64 @strlen(i8* %61) #3
  %63 = load i32, i32* %2, align 4
  %64 = sext i32 %63 to i64
  %65 = icmp ult i64 %62, %64
  br i1 %65, label %66, label %74

66:                                               ; preds = %57
  %67 = load i32, i32* %4, align 4
  %68 = sext i32 %67 to i64
  %69 = getelementptr inbounds [200 x [100 x i8]], [200 x [100 x i8]]* %7, i64 0, i64 %68
  %70 = getelementptr inbounds [100 x i8], [100 x i8]* %69, i64 0, i64 0
  %71 = call i64 @strlen(i8* %70) #3
  %72 = trunc i64 %71 to i32
  store i32 %72, i32* %2, align 4
  %73 = load i32, i32* %4, align 4
  store i32 %73, i32* %6, align 4
  br label %74

74:                                               ; preds = %66, %57
  br label %75

75:                                               ; preds = %74
  %76 = load i32, i32* %4, align 4
  %77 = add nsw i32 %76, 1
  store i32 %77, i32* %4, align 4
  br label %36

78:                                               ; preds = %36
  %79 = load i32, i32* %5, align 4
  %80 = sext i32 %79 to i64
  %81 = getelementptr inbounds [200 x [100 x i8]], [200 x [100 x i8]]* %7, i64 0, i64 %80
  %82 = getelementptr inbounds [100 x i8], [100 x i8]* %81, i64 0, i64 0
  %83 = load i32, i32* %6, align 4
  %84 = sext i32 %83 to i64
  %85 = getelementptr inbounds [200 x [100 x i8]], [200 x [100 x i8]]* %7, i64 0, i64 %84
  %86 = getelementptr inbounds [100 x i8], [100 x i8]* %85, i64 0, i64 0
  %87 = call i32 (i8*, ...) @printf(i8* getelementptr inbounds ([6 x i8], [6 x i8]* @.str.1, i64 0, i64 0), i8* %82, i8* %86)
  ret void
}

declare dso_local i32 @__isoc99_scanf(i8*, ...) #1

; Function Attrs: nounwind readonly
declare dso_local i64 @strlen(i8*) #2

declare dso_local i32 @printf(i8*, ...) #1


!llvm.module.flags = !{!0}
!llvm.ident = !{!1}

!0 = !{i32 1, !"wchar_size", i32 4}
!1 = !{!"clang version 10.0.0-4ubuntu1 "}
